target datalayout = "e-m:e-p270:32:32-p271:32:32-p272:64:64-i64:64-i128:128-f80:128-n8:16:32:64-S128"
target triple = "x86_64-unknown-linux-gnu"

%class.btVector3 = type { [4 x float] }
%class.btKinematicCharacterController = type <{ %class.btCharacterControllerInterface, float, [4 x i8], ptr, ptr, float, float, float, float, float, float, float, float, float, float, float, float, float, %class.btVector3, %class.btVector3, %class.btVector3, %class.btVector3, %class.btVector3, float, %class.btVector3, %class.btQuaternion, %class.btQuaternion, %class.btAlignedObjectArray, i8, [3 x i8], %class.btVector3, float, float, i8, i8, i8, i8, float, %class.btVector3, %class.btVector3, i8, i8, i8, i8 }>
%class.btCharacterControllerInterface = type { %class.btActionInterface }
%class.btActionInterface = type { ptr }
%class.btQuaternion = type { %class.btQuadWord }
%class.btQuadWord = type { [4 x float] }
%class.btAlignedObjectArray = type <{ %class.btAlignedAllocator, [3 x i8], i32, i32, [4 x i8], ptr, i8, [7 x i8] }>
%class.btAlignedAllocator = type { i8 }

; Function Attrs: mustprogress nounwind uwtable
define linkonce_odr dso_local noundef float @_ZSt4fabsf(float noundef %__x) #1 comdat {
entry:
  %__x.addr = alloca float, align 4
  store float %__x, ptr %__x.addr, align 4
  %0 = load float, ptr %__x.addr, align 4
  %1 = call float @llvm.fabs.f32(float %0)
  ret float %1
}

; Function Attrs: mustprogress uwtable
define dso_local noundef zeroext i1 @_ZNK30btKinematicCharacterController8onGroundEv(ptr noundef nonnull align 8 dereferenceable(319) %this) unnamed_addr #3 align 2 {
entry:
  %this.addr = alloca ptr, align 8
  store ptr %this, ptr %this.addr, align 8
  %this1 = load ptr, ptr %this.addr, align 8
  %m_verticalVelocity = getelementptr inbounds %class.btKinematicCharacterController, ptr %this1, i32 0, i32 6
  %0 = load float, ptr %m_verticalVelocity, align 4
  %call = call noundef float @_ZSt4fabsf(float noundef %0)
  %cmp = fcmp olt float %call, 0x3E80000000000000
  br i1 %cmp, label %land.rhs, label %land.end

land.rhs:                                         ; preds = %entry
  %m_verticalOffset = getelementptr inbounds %class.btKinematicCharacterController, ptr %this1, i32 0, i32 7
  %1 = load float, ptr %m_verticalOffset, align 8
  %call2 = call noundef float @_ZSt4fabsf(float noundef %1)
  %cmp3 = fcmp olt float %call2, 0x3E80000000000000
  br label %land.end

land.end:                                         ; preds = %land.rhs, %entry
  %2 = phi i1 [ false, %entry ], [ %cmp3, %land.rhs ]
  ret i1 %2
}