; Function Attrs: mustprogress nofree norecurse nosync nounwind willreturn memory(argmem: read) uwtable
define dso_local noundef zeroext i1 @_ZNK30btKinematicCharacterController8onGroundEv(ptr nocapture noundef nonnull readonly align 8 dereferenceable(319) %this) unnamed_addr #5 align 2 {
entry:
  %m_verticalVelocity = getelementptr inbounds i8, ptr %this, i64 36
  %0 = load <2 x float>, ptr %m_verticalVelocity, align 4
  %1 = tail call <2 x float> @llvm.fabs.v2f32(<2 x float> %0)
  %2 = fcmp olt <2 x float> %1, <float 0x3E80000000000000, float 0x3E80000000000000>
  %3 = extractelement <2 x i1> %2, i64 0
  %4 = extractelement <2 x i1> %2, i64 1
  %5 = select i1 %3, i1 %4, i1 false
  ret i1 %5
}